target datalayout = "e-m:e-p270:32:32-p271:32:32-p272:64:64-i64:64-i128:128-f80:128-n8:16:32:64-S128"
target triple = "x86_64-pc-linux-gnu"

%struct.IPV6_STAT = type { [16 x i8], i32, i32, i32 }

; Function Attrs: nounwind uwtable
define internal i32 @ipv6_hex(ptr noundef %0, ptr noundef %1, i32 noundef %2) #0 {
  %4 = alloca i32, align 4
  %5 = alloca ptr, align 8
  %6 = alloca ptr, align 8
  %7 = alloca i32, align 4
  %8 = alloca i8, align 1
  %9 = alloca i32, align 4
  %10 = alloca i32, align 4
  %11 = alloca i32, align 4
  store ptr %0, ptr %5, align 8, !tbaa !3
  store ptr %1, ptr %6, align 8, !tbaa !3
  store i32 %2, ptr %7, align 4, !tbaa !15
  call void @llvm.lifetime.start.p0(i64 1, ptr %8) #8
  call void @llvm.lifetime.start.p0(i64 4, ptr %9) #8
  store i32 0, ptr %9, align 4, !tbaa !15
  call void @llvm.lifetime.start.p0(i64 4, ptr %10) #8
  %12 = load i32, ptr %7, align 4, !tbaa !15
  %13 = icmp sgt i32 %12, 4
  br i1 %13, label %14, label %15

14:                                               ; preds = %3
  store i32 0, ptr %4, align 4
  store i32 1, ptr %11, align 4
  br label %48

15:                                               ; preds = %3
  br label %16

16:                                               ; preds = %31, %15
  %17 = load i32, ptr %7, align 4, !tbaa !15
  %18 = add nsw i32 %17, -1
  store i32 %18, ptr %7, align 4, !tbaa !15
  %19 = icmp ne i32 %17, 0
  br i1 %19, label %20, label %37

20:                                               ; preds = %16
  %21 = load ptr, ptr %6, align 8, !tbaa !3
  %22 = getelementptr inbounds nuw i8, ptr %21, i32 1
  store ptr %22, ptr %6, align 8, !tbaa !3
  %23 = load i8, ptr %21, align 1, !tbaa !27
  store i8 %23, ptr %8, align 1, !tbaa !27
  %24 = load i32, ptr %9, align 4, !tbaa !15
  %25 = shl i32 %24, 4
  store i32 %25, ptr %9, align 4, !tbaa !15
  %26 = load i8, ptr %8, align 1, !tbaa !27
  %27 = call i32 @OPENSSL_hexchar2int(i8 noundef zeroext %26)
  store i32 %27, ptr %10, align 4, !tbaa !15
  %28 = load i32, ptr %10, align 4, !tbaa !15
  %29 = icmp slt i32 %28, 0
  br i1 %29, label %30, label %31

30:                                               ; preds = %20
  store i32 0, ptr %4, align 4
  store i32 1, ptr %11, align 4
  br label %48

31:                                               ; preds = %20
  %32 = load i32, ptr %10, align 4, !tbaa !15
  %33 = trunc i32 %32 to i8
  %34 = sext i8 %33 to i32
  %35 = load i32, ptr %9, align 4, !tbaa !15
  %36 = or i32 %35, %34
  store i32 %36, ptr %9, align 4, !tbaa !15
  br label %16, !llvm.loop !98

37:                                               ; preds = %16
  %38 = load i32, ptr %9, align 4, !tbaa !15
  %39 = lshr i32 %38, 8
  %40 = trunc i32 %39 to i8
  %41 = load ptr, ptr %5, align 8, !tbaa !3
  %42 = getelementptr inbounds i8, ptr %41, i64 0
  store i8 %40, ptr %42, align 1, !tbaa !27
  %43 = load i32, ptr %9, align 4, !tbaa !15
  %44 = and i32 %43, 255
  %45 = trunc i32 %44 to i8
  %46 = load ptr, ptr %5, align 8, !tbaa !3
  %47 = getelementptr inbounds i8, ptr %46, i64 1
  store i8 %45, ptr %47, align 1, !tbaa !27
  store i32 1, ptr %4, align 4
  store i32 1, ptr %11, align 4
  br label %48

48:                                               ; preds = %37, %30, %14
  call void @llvm.lifetime.end.p0(i64 4, ptr %10) #8
  call void @llvm.lifetime.end.p0(i64 4, ptr %9) #8
  call void @llvm.lifetime.end.p0(i64 1, ptr %8) #8
  %49 = load i32, ptr %4, align 4
  ret i32 %49
}

; Function Attrs: nounwind uwtable
define internal i32 @ipv6_cb(ptr noundef %0, i32 noundef %1, ptr noundef %2) #0 {
  %4 = alloca i32, align 4
  %5 = alloca ptr, align 8
  %6 = alloca i32, align 4
  %7 = alloca ptr, align 8
  %8 = alloca ptr, align 8
  %9 = alloca i32, align 4
  store ptr %0, ptr %5, align 8, !tbaa !3
  store i32 %1, ptr %6, align 4, !tbaa !15
  store ptr %2, ptr %7, align 8, !tbaa !12
  call void @llvm.lifetime.start.p0(i64 8, ptr %8) #8
  %10 = load ptr, ptr %7, align 8, !tbaa !12
  store ptr %10, ptr %8, align 8, !tbaa !12
  %11 = load ptr, ptr %8, align 8, !tbaa !12
  %12 = getelementptr inbounds nuw %struct.IPV6_STAT, ptr %11, i32 0, i32 1
  %13 = load i32, ptr %12, align 4, !tbaa !82
  %14 = icmp eq i32 %13, 16
  br i1 %14, label %15, label %16

15:                                               ; preds = %3
  store i32 0, ptr %4, align 4
  store i32 1, ptr %9, align 4
  br label %101

16:                                               ; preds = %3
  %17 = load i32, ptr %6, align 4, !tbaa !15
  %18 = icmp eq i32 %17, 0
  br i1 %18, label %19, label %45

19:                                               ; preds = %16
  %20 = load ptr, ptr %8, align 8, !tbaa !12
  %21 = getelementptr inbounds nuw %struct.IPV6_STAT, ptr %20, i32 0, i32 2
  %22 = load i32, ptr %21, align 4, !tbaa !84
  %23 = icmp eq i32 %22, -1
  br i1 %23, label %24, label %30

24:                                               ; preds = %19
  %25 = load ptr, ptr %8, align 8, !tbaa !12
  %26 = getelementptr inbounds nuw %struct.IPV6_STAT, ptr %25, i32 0, i32 1
  %27 = load i32, ptr %26, align 4, !tbaa !82
  %28 = load ptr, ptr %8, align 8, !tbaa !12
  %29 = getelementptr inbounds nuw %struct.IPV6_STAT, ptr %28, i32 0, i32 2
  store i32 %27, ptr %29, align 4, !tbaa !84
  br label %40

30:                                               ; preds = %19
  %31 = load ptr, ptr %8, align 8, !tbaa !12
  %32 = getelementptr inbounds nuw %struct.IPV6_STAT, ptr %31, i32 0, i32 2
  %33 = load i32, ptr %32, align 4, !tbaa !84
  %34 = load ptr, ptr %8, align 8, !tbaa !12
  %35 = getelementptr inbounds nuw %struct.IPV6_STAT, ptr %34, i32 0, i32 1
  %36 = load i32, ptr %35, align 4, !tbaa !82
  %37 = icmp ne i32 %33, %36
  br i1 %37, label %38, label %39

38:                                               ; preds = %30
  store i32 0, ptr %4, align 4
  store i32 1, ptr %9, align 4
  br label %101

39:                                               ; preds = %30
  br label %40

40:                                               ; preds = %39, %24
  %41 = load ptr, ptr %8, align 8, !tbaa !12
  %42 = getelementptr inbounds nuw %struct.IPV6_STAT, ptr %41, i32 0, i32 3
  %43 = load i32, ptr %42, align 4, !tbaa !85
  %44 = add nsw i32 %43, 1
  store i32 %44, ptr %42, align 4, !tbaa !85
  br label %100

45:                                               ; preds = %16
  %46 = load i32, ptr %6, align 4, !tbaa !15
  %47 = icmp sgt i32 %46, 4
  br i1 %47, label %48, label %80

48:                                               ; preds = %45
  %49 = load ptr, ptr %8, align 8, !tbaa !12
  %50 = getelementptr inbounds nuw %struct.IPV6_STAT, ptr %49, i32 0, i32 1
  %51 = load i32, ptr %50, align 4, !tbaa !82
  %52 = icmp sgt i32 %51, 12
  br i1 %52, label %53, label %54

53:                                               ; preds = %48
  store i32 0, ptr %4, align 4
  store i32 1, ptr %9, align 4
  br label %101

54:                                               ; preds = %48
  %55 = load ptr, ptr %5, align 8, !tbaa !3
  %56 = load i32, ptr %6, align 4, !tbaa !15
  %57 = sext i32 %56 to i64
  %58 = getelementptr inbounds i8, ptr %55, i64 %57
  %59 = load i8, ptr %58, align 1, !tbaa !27
  %60 = icmp ne i8 %59, 0
  br i1 %60, label %61, label %62

61:                                               ; preds = %54
  store i32 0, ptr %4, align 4
  store i32 1, ptr %9, align 4
  br label %101

62:                                               ; preds = %54
  %63 = load ptr, ptr %8, align 8, !tbaa !12
  %64 = getelementptr inbounds nuw %struct.IPV6_STAT, ptr %63, i32 0, i32 0
  %65 = getelementptr inbounds [16 x i8], ptr %64, i64 0, i64 0
  %66 = load ptr, ptr %8, align 8, !tbaa !12
  %67 = getelementptr inbounds nuw %struct.IPV6_STAT, ptr %66, i32 0, i32 1
  %68 = load i32, ptr %67, align 4, !tbaa !82
  %69 = sext i32 %68 to i64
  %70 = getelementptr inbounds i8, ptr %65, i64 %69
  %71 = load ptr, ptr %5, align 8, !tbaa !3
  %72 = call i32 @ipv4_from_asc(ptr noundef %70, ptr noundef %71)
  %73 = icmp ne i32 %72, 0
  br i1 %73, label %75, label %74

74:                                               ; preds = %62
  store i32 0, ptr %4, align 4
  store i32 1, ptr %9, align 4
  br label %101

75:                                               ; preds = %62
  %76 = load ptr, ptr %8, align 8, !tbaa !12
  %77 = getelementptr inbounds nuw %struct.IPV6_STAT, ptr %76, i32 0, i32 1
  %78 = load i32, ptr %77, align 4, !tbaa !82
  %79 = add nsw i32 %78, 4
  store i32 %79, ptr %77, align 4, !tbaa !82
  br label %99

80:                                               ; preds = %45
  %81 = load ptr, ptr %8, align 8, !tbaa !12
  %82 = getelementptr inbounds nuw %struct.IPV6_STAT, ptr %81, i32 0, i32 0
  %83 = getelementptr inbounds [16 x i8], ptr %82, i64 0, i64 0
  %84 = load ptr, ptr %8, align 8, !tbaa !12
  %85 = getelementptr inbounds nuw %struct.IPV6_STAT, ptr %84, i32 0, i32 1
  %86 = load i32, ptr %85, align 4, !tbaa !82
  %87 = sext i32 %86 to i64
  %88 = getelementptr inbounds i8, ptr %83, i64 %87
  %89 = load ptr, ptr %5, align 8, !tbaa !3
  %90 = load i32, ptr %6, align 4, !tbaa !15
  %91 = call i32 @ipv6_hex(ptr noundef %88, ptr noundef %89, i32 noundef %90)
  %92 = icmp ne i32 %91, 0
  br i1 %92, label %94, label %93

93:                                               ; preds = %80
  store i32 0, ptr %4, align 4
  store i32 1, ptr %9, align 4
  br label %101

94:                                               ; preds = %80
  %95 = load ptr, ptr %8, align 8, !tbaa !12
  %96 = getelementptr inbounds nuw %struct.IPV6_STAT, ptr %95, i32 0, i32 1
  %97 = load i32, ptr %96, align 4, !tbaa !82
  %98 = add nsw i32 %97, 2
  store i32 %98, ptr %96, align 4, !tbaa !82
  br label %99

99:                                               ; preds = %94, %75
  br label %100

100:                                              ; preds = %99, %40
  store i32 1, ptr %4, align 4
  store i32 1, ptr %9, align 4
  br label %101

101:                                              ; preds = %100, %93, %74, %61, %53, %38, %15
  call void @llvm.lifetime.end.p0(i64 8, ptr %8) #8
  %102 = load i32, ptr %4, align 4
  ret i32 %102
}