; Function Attrs: nounwind uwtable
define internal range(i32 0, 2) i32 @ipv6_cb(ptr noundef readonly captures(none) %0, i32 noundef %1, ptr noundef captures(none) %2) #0 {
  %4 = getelementptr inbounds nuw i8, ptr %2, i64 16
  %5 = load i32, ptr %4, align 4, !tbaa !51
  %6 = icmp eq i32 %5, 16
  br i1 %6, label %ipv6_hex.exit.thread, label %7

7:                                                ; preds = %3
  %8 = icmp eq i32 %1, 0
  br i1 %8, label %9, label %19

9:                                                ; preds = %7
  %10 = getelementptr inbounds nuw i8, ptr %2, i64 20
  %11 = load i32, ptr %10, align 4, !tbaa !53
  %12 = icmp eq i32 %11, -1
  br i1 %12, label %13, label %14

13:                                               ; preds = %9
  store i32 %5, ptr %10, align 4, !tbaa !53
  br label %15

14:                                               ; preds = %9
  %.not27 = icmp eq i32 %11, %5
  br i1 %.not27, label %15, label %ipv6_hex.exit.thread

15:                                               ; preds = %14, %13
  %16 = getelementptr inbounds nuw i8, ptr %2, i64 24
  %17 = load i32, ptr %16, align 4, !tbaa !54
  %18 = add nsw i32 %17, 1
  store i32 %18, ptr %16, align 4, !tbaa !54
  br label %ipv6_hex.exit.thread

19:                                               ; preds = %7
  %20 = icmp sgt i32 %1, 4
  br i1 %20, label %21, label %34

21:                                               ; preds = %19
  %22 = icmp sgt i32 %5, 12
  br i1 %22, label %ipv6_hex.exit.thread, label %23

23:                                               ; preds = %21
  %24 = zext nneg i32 %1 to i64
  %25 = getelementptr inbounds nuw i8, ptr %0, i64 %24
  %26 = load i8, ptr %25, align 1, !tbaa !13
  %.not25 = icmp eq i8 %26, 0
  br i1 %.not25, label %27, label %ipv6_hex.exit.thread

27:                                               ; preds = %23
  %28 = sext i32 %5 to i64
  %29 = getelementptr inbounds i8, ptr %2, i64 %28
  %30 = tail call fastcc i32 @ipv4_from_asc(ptr noundef %29, ptr noundef nonnull %0)
  %.not26 = icmp eq i32 %30, 0
  br i1 %.not26, label %ipv6_hex.exit.thread, label %31

31:                                               ; preds = %27
  %32 = load i32, ptr %4, align 4, !tbaa !51
  %33 = add nsw i32 %32, 4
  store i32 %33, ptr %4, align 4, !tbaa !51
  br label %ipv6_hex.exit.thread

34:                                               ; preds = %19
  %35 = sext i32 %5 to i64
  %36 = getelementptr inbounds i8, ptr %2, i64 %35
  br label %.preheader.i

.preheader.i:                                     ; preds = %34, %40
  %.in.i = phi i32 [ %41, %40 ], [ %1, %34 ]
  %.01219.i = phi i32 [ %45, %40 ], [ 0, %34 ]
  %.01318.i = phi ptr [ %43, %40 ], [ %0, %34 ]
  %37 = load i8, ptr %.01318.i, align 1, !tbaa !13
  %38 = tail call i32 @OPENSSL_hexchar2int(i8 noundef zeroext %37) #12
  %39 = icmp slt i32 %38, 0
  br i1 %39, label %ipv6_hex.exit.thread, label %40

40:                                               ; preds = %.preheader.i
  %41 = add nsw i32 %.in.i, -1
  %42 = shl i32 %.01219.i, 4
  %43 = getelementptr inbounds nuw i8, ptr %.01318.i, i64 1
  %sext.i = shl i32 %38, 24
  %44 = ashr exact i32 %sext.i, 24
  %45 = or i32 %44, %42
  %.not.i = icmp eq i32 %41, 0
  br i1 %.not.i, label %46, label %.preheader.i, !llvm.loop !63

46:                                               ; preds = %40
  %47 = lshr i32 %45, 8
  %48 = trunc i32 %47 to i8
  store i8 %48, ptr %36, align 1, !tbaa !13
  %49 = trunc i32 %45 to i8
  %50 = getelementptr inbounds nuw i8, ptr %36, i64 1
  store i8 %49, ptr %50, align 1, !tbaa !13
  %51 = load i32, ptr %4, align 4, !tbaa !51
  %52 = add nsw i32 %51, 2
  store i32 %52, ptr %4, align 4, !tbaa !51
  br label %ipv6_hex.exit.thread

ipv6_hex.exit.thread:                             ; preds = %.preheader.i, %15, %46, %31, %27, %23, %21, %14, %3
  %.0 = phi i32 [ 0, %3 ], [ 0, %14 ], [ 0, %21 ], [ 0, %23 ], [ 0, %27 ], [ 1, %31 ], [ 1, %46 ], [ 1, %15 ], [ 0, %.preheader.i ]
  ret i32 %.0
}